; Function Attrs: nounwind uwtable
define internal void @aead_tls_cleanup(ptr noundef captures(none) %0) #1 {
  %2 = getelementptr inbounds nuw i8, ptr %0, i64 8
  %3 = load ptr, ptr %2, align 8, !tbaa !6
  %4 = tail call i32 @EVP_CIPHER_CTX_cleanup(ptr noundef %3) #8
  %5 = getelementptr inbounds nuw i8, ptr %3, i64 152
  tail call void @HMAC_CTX_cleanup(ptr noundef nonnull %5) #8
  %6 = getelementptr inbounds nuw i8, ptr %3, i64 256
  tail call void @OPENSSL_cleanse(ptr noundef nonnull %6, i64 noundef 64) #8
  tail call void @free(ptr noundef %3) #8
  store ptr null, ptr %2, align 8, !tbaa !6
  ret void
}